target datalayout = "e-m:e-p270:32:32-p271:32:32-p272:64:64-i64:64-i128:128-f80:128-n8:16:32:64-S128"
target triple = "x86_64-pc-linux-gnu"

@_ZN3tbb6detail2r1L8controlsE = internal global [4 x ptr] zeroinitializer, align 16
@.str = private unnamed_addr constant [42 x i8] c"param < d1::global_control::parameter_max\00", align 1
@__func__._ZN3tbb6detail2r127global_control_active_valueEi = private unnamed_addr constant [28 x i8] c"global_control_active_value\00", align 1

; Function Attrs: mustprogress sspstrong uwtable
define noundef i64 @_ZN3tbb6detail2r127global_control_active_valueEi(i32 noundef %0) #0 {
  %2 = alloca i32, align 4
  store i32 %0, ptr %2, align 4, !tbaa !25
  %3 = load i32, ptr %2, align 4, !tbaa !25
  %4 = icmp slt i32 %3, 4
  br i1 %4, label %5, label %6

5:                                                ; preds = %1
  br label %7

6:                                                ; preds = %1
  call void @_ZN3tbb6detail2r117assertion_failureEPKciS3_S3_(ptr noundef @__func__._ZN3tbb6detail2r127global_control_active_valueEi, i32 noundef 279, ptr noundef @.str, ptr noundef null)
  br label %7

7:                                                ; preds = %6, %5
  %8 = load i32, ptr %2, align 4, !tbaa !25
  %9 = sext i32 %8 to i64
  %10 = getelementptr inbounds [4 x ptr], ptr @_ZN3tbb6detail2r1L8controlsE, i64 0, i64 %9
  %11 = load ptr, ptr %10, align 8, !tbaa !3
  %12 = load ptr, ptr %11, align 8, !tbaa !10
  %13 = getelementptr inbounds ptr, ptr %12, i64 5
  %14 = load ptr, ptr %13, align 8
  %15 = call noundef i64 %14(ptr noundef nonnull align 8 dereferenceable(65) %11)
  ret i64 %15
}