; Function Attrs: mustprogress sspstrong uwtable
define noundef i64 @_ZN3tbb6detail2r127global_control_active_valueEi(i32 noundef %0) local_unnamed_addr #0 {
  %2 = icmp slt i32 %0, 4
  br i1 %2, label %4, label %3

3:                                                ; preds = %1
  tail call void @_ZN3tbb6detail2r117assertion_failureEPKciS3_S3_(ptr noundef nonnull @__func__._ZN3tbb6detail2r127global_control_active_valueEi, i32 noundef 279, ptr noundef nonnull @.str, ptr noundef null)
  br label %4

4:                                                ; preds = %1, %3
  %5 = sext i32 %0 to i64
  %6 = getelementptr inbounds [4 x ptr], ptr @_ZN3tbb6detail2r1L8controlsE, i64 0, i64 %5
  %7 = load ptr, ptr %6, align 8, !tbaa !18
  %8 = load ptr, ptr %7, align 8, !tbaa !16
  %9 = getelementptr inbounds nuw i8, ptr %8, i64 40
  %10 = load ptr, ptr %9, align 8
  %11 = tail call noundef i64 %10(ptr noundef nonnull align 8 dereferenceable(65) %7)
  ret i64 %11
}